target datalayout = "e-m:e-p270:32:32-p271:32:32-p272:64:64-i64:64-i128:128-f80:128-n8:16:32:64-S128"
target triple = "x86_64-pc-linux-gnu"

@l___private_Std_Time_Time_HourMarker_0__Std_Time_reprHourMarker____x40_Std_Time_Time_HourMarker___hyg_12____closed__5 = internal global ptr null, align 8
@l___private_Std_Time_Time_HourMarker_0__Std_Time_reprHourMarker____x40_Std_Time_Time_HourMarker___hyg_12____closed__8 = internal global ptr null, align 8
@l___private_Std_Time_Time_HourMarker_0__Std_Time_reprHourMarker____x40_Std_Time_Time_HourMarker___hyg_12____closed__12 = internal global ptr null, align 8
@l___private_Std_Time_Time_HourMarker_0__Std_Time_reprHourMarker____x40_Std_Time_Time_HourMarker___hyg_12____closed__14 = internal global ptr null, align 8

; Function Attrs: alwaysinline nounwind uwtable
define internal zeroext i1 @lean_is_scalar(ptr noundef %0) #1 {
  %2 = alloca ptr, align 8
  store ptr %0, ptr %2, align 8, !tbaa !4
  %3 = load ptr, ptr %2, align 8, !tbaa !4
  %4 = ptrtoint ptr %3 to i64
  %5 = and i64 %4, 1
  %6 = icmp eq i64 %5, 1
  ret i1 %6
}

; Function Attrs: inlinehint nounwind uwtable
define internal ptr @lean_box(i64 noundef %0) #0 {
  %2 = alloca i64, align 8
  store i64 %0, ptr %2, align 8, !tbaa !8
  %3 = load i64, ptr %2, align 8, !tbaa !8
  %4 = shl i64 %3, 1
  %5 = or i64 %4, 1
  %6 = inttoptr i64 %5 to ptr
  ret ptr %6
}

; Function Attrs: alwaysinline nounwind uwtable
define internal zeroext i1 @lean_nat_le(ptr noundef %0, ptr noundef %1) #1 {
  %3 = alloca i1, align 1
  %4 = alloca ptr, align 8
  %5 = alloca ptr, align 8
  store ptr %0, ptr %4, align 8, !tbaa !4
  store ptr %1, ptr %5, align 8, !tbaa !4
  %6 = load ptr, ptr %4, align 8, !tbaa !4
  %7 = call zeroext i1 @lean_is_scalar(ptr noundef %6)
  br i1 %7, label %8, label %11

8:                                                ; preds = %2
  %9 = load ptr, ptr %5, align 8, !tbaa !4
  %10 = call zeroext i1 @lean_is_scalar(ptr noundef %9)
  br label %11

11:                                               ; preds = %8, %2
  %12 = phi i1 [ false, %2 ], [ %10, %8 ]
  %13 = zext i1 %12 to i32
  %14 = sext i32 %13 to i64
  %15 = call i64 @llvm.expect.i64(i64 %14, i64 1)
  %16 = icmp ne i64 %15, 0
  br i1 %16, label %17, label %21

17:                                               ; preds = %11
  %18 = load ptr, ptr %4, align 8, !tbaa !4
  %19 = load ptr, ptr %5, align 8, !tbaa !4
  %20 = icmp ule ptr %18, %19
  store i1 %20, ptr %3, align 1
  br label %25

21:                                               ; preds = %11
  %22 = load ptr, ptr %4, align 8, !tbaa !4
  %23 = load ptr, ptr %5, align 8, !tbaa !4
  %24 = call zeroext i1 @lean_nat_big_le(ptr noundef %22, ptr noundef %23)
  store i1 %24, ptr %3, align 1
  br label %25

25:                                               ; preds = %21, %17
  %26 = load i1, ptr %3, align 1
  ret i1 %26
}

; Function Attrs: inlinehint nounwind uwtable
define internal ptr @lean_usize_to_nat(i64 noundef %0) #0 {
  %2 = alloca ptr, align 8
  %3 = alloca i64, align 8
  store i64 %0, ptr %3, align 8, !tbaa !8
  %4 = load i64, ptr %3, align 8, !tbaa !8
  %5 = icmp ule i64 %4, 9223372036854775807
  %6 = zext i1 %5 to i32
  %7 = sext i32 %6 to i64
  %8 = call i64 @llvm.expect.i64(i64 %7, i64 1)
  %9 = icmp ne i64 %8, 0
  br i1 %9, label %10, label %13

10:                                               ; preds = %1
  %11 = load i64, ptr %3, align 8, !tbaa !8
  %12 = call ptr @lean_box(i64 noundef %11)
  store ptr %12, ptr %2, align 8
  br label %16

13:                                               ; preds = %1
  %14 = load i64, ptr %3, align 8, !tbaa !8
  %15 = call ptr @lean_big_usize_to_nat(i64 noundef %14)
  store ptr %15, ptr %2, align 8
  br label %16

16:                                               ; preds = %13, %10
  %17 = load ptr, ptr %2, align 8
  ret ptr %17
}

; Function Attrs: alwaysinline nounwind uwtable
define internal zeroext i8 @lean_nat_dec_le(ptr noundef %0, ptr noundef %1) #1 {
  %3 = alloca ptr, align 8
  %4 = alloca ptr, align 8
  store ptr %0, ptr %3, align 8, !tbaa !4
  store ptr %1, ptr %4, align 8, !tbaa !4
  %5 = load ptr, ptr %3, align 8, !tbaa !4
  %6 = load ptr, ptr %4, align 8, !tbaa !4
  %7 = call zeroext i1 @lean_nat_le(ptr noundef %5, ptr noundef %6)
  %8 = zext i1 %7 to i8
  ret i8 %8
}

; Function Attrs: inlinehint nounwind uwtable
define internal ptr @lean_unsigned_to_nat(i32 noundef %0) #0 {
  %2 = alloca i32, align 4
  store i32 %0, ptr %2, align 4, !tbaa !11
  %3 = load i32, ptr %2, align 4, !tbaa !11
  %4 = zext i32 %3 to i64
  %5 = call ptr @lean_usize_to_nat(i64 noundef %4)
  ret ptr %5
}

; Function Attrs: nounwind uwtable
define ptr @l___private_Std_Time_Time_HourMarker_0__Std_Time_reprHourMarker____x40_Std_Time_Time_HourMarker___hyg_12_(i8 noundef zeroext %0, ptr noundef %1) #2 {
  %3 = alloca ptr, align 8
  %4 = alloca i8, align 1
  %5 = alloca ptr, align 8
  %6 = alloca ptr, align 8
  %7 = alloca i8, align 1
  %8 = alloca ptr, align 8
  %9 = alloca ptr, align 8
  %10 = alloca i32, align 4
  %11 = alloca ptr, align 8
  %12 = alloca ptr, align 8
  %13 = alloca ptr, align 8
  %14 = alloca i8, align 1
  %15 = alloca ptr, align 8
  %16 = alloca ptr, align 8
  %17 = alloca ptr, align 8
  %18 = alloca ptr, align 8
  store i8 %0, ptr %4, align 1, !tbaa !10
  store ptr %1, ptr %5, align 8, !tbaa !4
  br label %19

19:                                               ; preds = %2
  %20 = load i8, ptr %4, align 1, !tbaa !10
  %21 = zext i8 %20 to i32
  %22 = icmp eq i32 %21, 0
  br i1 %22, label %23, label %44

23:                                               ; preds = %19
  call void @llvm.lifetime.start.p0(i64 8, ptr %6) #7
  call void @llvm.lifetime.start.p0(i64 1, ptr %7) #7
  %24 = call ptr @lean_unsigned_to_nat(i32 noundef 1024)
  store ptr %24, ptr %6, align 8, !tbaa !4
  %25 = load ptr, ptr %6, align 8, !tbaa !4
  %26 = load ptr, ptr %5, align 8, !tbaa !4
  %27 = call zeroext i8 @lean_nat_dec_le(ptr noundef %25, ptr noundef %26)
  store i8 %27, ptr %7, align 1, !tbaa !10
  %28 = load i8, ptr %7, align 1, !tbaa !10
  %29 = zext i8 %28 to i32
  %30 = icmp eq i32 %29, 0
  br i1 %30, label %31, label %37

31:                                               ; preds = %23
  call void @llvm.lifetime.start.p0(i64 8, ptr %8) #7
  call void @llvm.lifetime.start.p0(i64 8, ptr %9) #7
  %32 = load ptr, ptr @l___private_Std_Time_Time_HourMarker_0__Std_Time_reprHourMarker____x40_Std_Time_Time_HourMarker___hyg_12____closed__5, align 8, !tbaa !4
  store ptr %32, ptr %8, align 8, !tbaa !4
  %33 = load ptr, ptr %8, align 8, !tbaa !4
  %34 = load ptr, ptr %5, align 8, !tbaa !4
  %35 = call ptr @l_Repr_addAppParen(ptr noundef %33, ptr noundef %34)
  store ptr %35, ptr %9, align 8, !tbaa !4
  %36 = load ptr, ptr %9, align 8, !tbaa !4
  store ptr %36, ptr %3, align 8
  store i32 1, ptr %10, align 4
  call void @llvm.lifetime.end.p0(i64 8, ptr %9) #7
  call void @llvm.lifetime.end.p0(i64 8, ptr %8) #7
  br label %43

37:                                               ; preds = %23
  call void @llvm.lifetime.start.p0(i64 8, ptr %11) #7
  call void @llvm.lifetime.start.p0(i64 8, ptr %12) #7
  %38 = load ptr, ptr @l___private_Std_Time_Time_HourMarker_0__Std_Time_reprHourMarker____x40_Std_Time_Time_HourMarker___hyg_12____closed__8, align 8, !tbaa !4
  store ptr %38, ptr %11, align 8, !tbaa !4
  %39 = load ptr, ptr %11, align 8, !tbaa !4
  %40 = load ptr, ptr %5, align 8, !tbaa !4
  %41 = call ptr @l_Repr_addAppParen(ptr noundef %39, ptr noundef %40)
  store ptr %41, ptr %12, align 8, !tbaa !4
  %42 = load ptr, ptr %12, align 8, !tbaa !4
  store ptr %42, ptr %3, align 8
  store i32 1, ptr %10, align 4
  call void @llvm.lifetime.end.p0(i64 8, ptr %12) #7
  call void @llvm.lifetime.end.p0(i64 8, ptr %11) #7
  br label %43

43:                                               ; preds = %37, %31
  call void @llvm.lifetime.end.p0(i64 1, ptr %7) #7
  call void @llvm.lifetime.end.p0(i64 8, ptr %6) #7
  br label %65

44:                                               ; preds = %19
  call void @llvm.lifetime.start.p0(i64 8, ptr %13) #7
  call void @llvm.lifetime.start.p0(i64 1, ptr %14) #7
  %45 = call ptr @lean_unsigned_to_nat(i32 noundef 1024)
  store ptr %45, ptr %13, align 8, !tbaa !4
  %46 = load ptr, ptr %13, align 8, !tbaa !4
  %47 = load ptr, ptr %5, align 8, !tbaa !4
  %48 = call zeroext i8 @lean_nat_dec_le(ptr noundef %46, ptr noundef %47)
  store i8 %48, ptr %14, align 1, !tbaa !10
  %49 = load i8, ptr %14, align 1, !tbaa !10
  %50 = zext i8 %49 to i32
  %51 = icmp eq i32 %50, 0
  br i1 %51, label %52, label %58

52:                                               ; preds = %44
  call void @llvm.lifetime.start.p0(i64 8, ptr %15) #7
  call void @llvm.lifetime.start.p0(i64 8, ptr %16) #7
  %53 = load ptr, ptr @l___private_Std_Time_Time_HourMarker_0__Std_Time_reprHourMarker____x40_Std_Time_Time_HourMarker___hyg_12____closed__12, align 8, !tbaa !4
  store ptr %53, ptr %15, align 8, !tbaa !4
  %54 = load ptr, ptr %15, align 8, !tbaa !4
  %55 = load ptr, ptr %5, align 8, !tbaa !4
  %56 = call ptr @l_Repr_addAppParen(ptr noundef %54, ptr noundef %55)
  store ptr %56, ptr %16, align 8, !tbaa !4
  %57 = load ptr, ptr %16, align 8, !tbaa !4
  store ptr %57, ptr %3, align 8
  store i32 1, ptr %10, align 4
  call void @llvm.lifetime.end.p0(i64 8, ptr %16) #7
  call void @llvm.lifetime.end.p0(i64 8, ptr %15) #7
  br label %64

58:                                               ; preds = %44
  call void @llvm.lifetime.start.p0(i64 8, ptr %17) #7
  call void @llvm.lifetime.start.p0(i64 8, ptr %18) #7
  %59 = load ptr, ptr @l___private_Std_Time_Time_HourMarker_0__Std_Time_reprHourMarker____x40_Std_Time_Time_HourMarker___hyg_12____closed__14, align 8, !tbaa !4
  store ptr %59, ptr %17, align 8, !tbaa !4
  %60 = load ptr, ptr %17, align 8, !tbaa !4
  %61 = load ptr, ptr %5, align 8, !tbaa !4
  %62 = call ptr @l_Repr_addAppParen(ptr noundef %60, ptr noundef %61)
  store ptr %62, ptr %18, align 8, !tbaa !4
  %63 = load ptr, ptr %18, align 8, !tbaa !4
  store ptr %63, ptr %3, align 8
  store i32 1, ptr %10, align 4
  call void @llvm.lifetime.end.p0(i64 8, ptr %18) #7
  call void @llvm.lifetime.end.p0(i64 8, ptr %17) #7
  br label %64

64:                                               ; preds = %58, %52
  call void @llvm.lifetime.end.p0(i64 1, ptr %14) #7
  call void @llvm.lifetime.end.p0(i64 8, ptr %13) #7
  br label %65

65:                                               ; preds = %64, %43
  %66 = load ptr, ptr %3, align 8
  ret ptr %66
}